target datalayout = "e-m:e-p270:32:32-p271:32:32-p272:64:64-i64:64-i128:128-f80:128-n8:16:32:64-S128"
target triple = "x86_64-pc-linux-gnu"

%"struct.memarena::arena_chunk" = type { ptr, i64, i64 }
%class.memarena = type { %"struct.memarena::arena_chunk", ptr, i32, i64, i64 }

; Function Attrs: mustprogress uwtable
define noundef i64 @_ZNK8memarena15total_footprintEv(ptr noundef nonnull align 8 dereferenceable(56) %0) #0 align 2 {
  %2 = alloca ptr, align 8
  store ptr %0, ptr %2, align 8, !tbaa !4
  %3 = load ptr, ptr %2, align 8
  %4 = getelementptr inbounds nuw %class.memarena, ptr %3, i32 0, i32 4
  %5 = load i64, ptr %4, align 8, !tbaa !20
  %6 = add i64 56, %5
  %7 = getelementptr inbounds nuw %class.memarena, ptr %3, i32 0, i32 0
  %8 = getelementptr inbounds nuw %"struct.memarena::arena_chunk", ptr %7, i32 0, i32 0
  %9 = load ptr, ptr %8, align 8, !tbaa !23
  %10 = getelementptr inbounds nuw %class.memarena, ptr %3, i32 0, i32 0
  %11 = getelementptr inbounds nuw %"struct.memarena::arena_chunk", ptr %10, i32 0, i32 1
  %12 = load i64, ptr %11, align 8, !tbaa !31
  %13 = call noundef i64 @_Z21toku_memory_footprintPvm(ptr noundef %9, i64 noundef %12)
  %14 = add i64 %6, %13
  %15 = getelementptr inbounds nuw %class.memarena, ptr %3, i32 0, i32 2
  %16 = load i32, ptr %15, align 8, !tbaa !21
  %17 = sext i32 %16 to i64
  %18 = mul i64 %17, 24
  %19 = add i64 %14, %18
  ret i64 %19
}