; Function Attrs: mustprogress uwtable
define noundef i64 @_ZNK8memarena15total_footprintEv(ptr noundef nonnull readonly align 8 captures(none) dereferenceable(56) %0) local_unnamed_addr #0 align 2 {
  %2 = getelementptr inbounds nuw i8, ptr %0, i64 48
  %3 = load i64, ptr %2, align 8, !tbaa !25
  %4 = add i64 %3, 56
  %5 = load ptr, ptr %0, align 8, !tbaa !16
  %6 = getelementptr inbounds nuw i8, ptr %0, i64 8
  %7 = load i64, ptr %6, align 8, !tbaa !20
  %8 = tail call noundef i64 @_Z21toku_memory_footprintPvm(ptr noundef %5, i64 noundef %7)
  %9 = add i64 %4, %8
  %10 = getelementptr inbounds nuw i8, ptr %0, i64 32
  %11 = load i32, ptr %10, align 8, !tbaa !14
  %12 = sext i32 %11 to i64
  %13 = mul nsw i64 %12, 24
  %14 = add i64 %9, %13
  ret i64 %14
}